target datalayout = "e-m:e-p270:32:32-p271:32:32-p272:64:64-i64:64-i128:128-f80:128-n8:16:32:64-S128"
target triple = "x86_64-pc-linux-gnu"

%struct.evconnlistener_ops = type { ptr, ptr, ptr, ptr, ptr, ptr }
%struct.evthread_lock_callbacks = type { i32, i32, ptr, ptr, ptr, ptr }
%struct.evconnlistener_event = type { %struct.evconnlistener, %struct.event }
%struct.evconnlistener = type { ptr, ptr, ptr, ptr, ptr, i32, i16, i32, i8 }
%struct.event = type { %struct.event_callback, %union.anon.0, i32, i16, i16, ptr, %union.anon.2, %struct.timeval }
%struct.event_callback = type { %struct.anon, i16, i8, i8, %union.anon, ptr }
%struct.anon = type { ptr, ptr }
%union.anon = type { ptr }
%union.anon.0 = type { %struct.anon.1 }
%struct.anon.1 = type { ptr, ptr }
%union.anon.2 = type { %struct.anon.3 }
%struct.anon.3 = type { %struct.anon.4, %struct.timeval }
%struct.anon.4 = type { ptr, ptr }
%struct.timeval = type { i64, i64 }

@evconnlistener_event_ops = internal constant %struct.evconnlistener_ops { ptr @event_listener_enable, ptr @event_listener_disable, ptr @event_listener_destroy, ptr null, ptr @event_listener_getfd, ptr @event_listener_getbase }, align 8
@evthread_lock_fns_ = external global %struct.evthread_lock_callbacks, align 8

; Function Attrs: nounwind uwtable
define i32 @evconnlistener_enable(ptr noundef %0) #0 {
  %2 = alloca ptr, align 8
  %3 = alloca i32, align 4
  store ptr %0, ptr %2, align 8
  call void @llvm.lifetime.start.p0(i64 4, ptr %3) #5
  br label %4

4:                                                ; preds = %1
  %5 = load ptr, ptr %2, align 8
  %6 = getelementptr inbounds nuw %struct.evconnlistener, ptr %5, i32 0, i32 1
  %7 = load ptr, ptr %6, align 8
  %8 = icmp ne ptr %7, null
  br i1 %8, label %9, label %15

9:                                                ; preds = %4
  %10 = load ptr, ptr getelementptr inbounds nuw (%struct.evthread_lock_callbacks, ptr @evthread_lock_fns_, i32 0, i32 4), align 8
  %11 = load ptr, ptr %2, align 8
  %12 = getelementptr inbounds nuw %struct.evconnlistener, ptr %11, i32 0, i32 1
  %13 = load ptr, ptr %12, align 8
  %14 = call i32 %10(i32 noundef 0, ptr noundef %13)
  br label %15

15:                                               ; preds = %9, %4
  br label %16

16:                                               ; preds = %15
  br label %17

17:                                               ; preds = %16
  %18 = load ptr, ptr %2, align 8
  %19 = getelementptr inbounds nuw %struct.evconnlistener, ptr %18, i32 0, i32 8
  %20 = load i8, ptr %19, align 4
  %21 = and i8 %20, -2
  %22 = or i8 %21, 1
  store i8 %22, ptr %19, align 4
  %23 = load ptr, ptr %2, align 8
  %24 = getelementptr inbounds nuw %struct.evconnlistener, ptr %23, i32 0, i32 2
  %25 = load ptr, ptr %24, align 8
  %26 = icmp ne ptr %25, null
  br i1 %26, label %27, label %35

27:                                               ; preds = %17
  %28 = load ptr, ptr %2, align 8
  %29 = getelementptr inbounds nuw %struct.evconnlistener, ptr %28, i32 0, i32 0
  %30 = load ptr, ptr %29, align 8
  %31 = getelementptr inbounds nuw %struct.evconnlistener_ops, ptr %30, i32 0, i32 0
  %32 = load ptr, ptr %31, align 8
  %33 = load ptr, ptr %2, align 8
  %34 = call i32 %32(ptr noundef %33)
  store i32 %34, ptr %3, align 4
  br label %36

35:                                               ; preds = %17
  store i32 0, ptr %3, align 4
  br label %36

36:                                               ; preds = %35, %27
  br label %37

37:                                               ; preds = %36
  %38 = load ptr, ptr %2, align 8
  %39 = getelementptr inbounds nuw %struct.evconnlistener, ptr %38, i32 0, i32 1
  %40 = load ptr, ptr %39, align 8
  %41 = icmp ne ptr %40, null
  br i1 %41, label %42, label %48

42:                                               ; preds = %37
  %43 = load ptr, ptr getelementptr inbounds nuw (%struct.evthread_lock_callbacks, ptr @evthread_lock_fns_, i32 0, i32 5), align 8
  %44 = load ptr, ptr %2, align 8
  %45 = getelementptr inbounds nuw %struct.evconnlistener, ptr %44, i32 0, i32 1
  %46 = load ptr, ptr %45, align 8
  %47 = call i32 %43(i32 noundef 0, ptr noundef %46)
  br label %48

48:                                               ; preds = %42, %37
  br label %49

49:                                               ; preds = %48
  br label %50

50:                                               ; preds = %49
  %51 = load i32, ptr %3, align 4
  call void @llvm.lifetime.end.p0(i64 4, ptr %3) #5
  ret i32 %51
}

; Function Attrs: nounwind uwtable
define ptr @evconnlistener_new(ptr noundef %0, ptr noundef %1, ptr noundef %2, i32 noundef %3, i32 noundef %4, i32 noundef %5) #0 {
  %7 = alloca ptr, align 8
  %8 = alloca ptr, align 8
  %9 = alloca ptr, align 8
  %10 = alloca ptr, align 8
  %11 = alloca i32, align 4
  %12 = alloca i32, align 4
  %13 = alloca i32, align 4
  %14 = alloca ptr, align 8
  %15 = alloca i32, align 4
  store ptr %0, ptr %8, align 8
  store ptr %1, ptr %9, align 8
  store ptr %2, ptr %10, align 8
  store i32 %3, ptr %11, align 4
  store i32 %4, ptr %12, align 4
  store i32 %5, ptr %13, align 4
  call void @llvm.lifetime.start.p0(i64 8, ptr %14) #5
  %16 = load i32, ptr %12, align 4
  %17 = icmp sgt i32 %16, 0
  br i1 %17, label %18, label %25

18:                                               ; preds = %6
  %19 = load i32, ptr %13, align 4
  %20 = load i32, ptr %12, align 4
  %21 = call i32 @listen(i32 noundef %19, i32 noundef %20) #5
  %22 = icmp slt i32 %21, 0
  br i1 %22, label %23, label %24

23:                                               ; preds = %18
  store ptr null, ptr %7, align 8
  store i32 1, ptr %15, align 4
  br label %114

24:                                               ; preds = %18
  br label %35

25:                                               ; preds = %6
  %26 = load i32, ptr %12, align 4
  %27 = icmp slt i32 %26, 0
  br i1 %27, label %28, label %34

28:                                               ; preds = %25
  %29 = load i32, ptr %13, align 4
  %30 = call i32 @listen(i32 noundef %29, i32 noundef 128) #5
  %31 = icmp slt i32 %30, 0
  br i1 %31, label %32, label %33

32:                                               ; preds = %28
  store ptr null, ptr %7, align 8
  store i32 1, ptr %15, align 4
  br label %114

33:                                               ; preds = %28
  br label %34

34:                                               ; preds = %33, %25
  br label %35

35:                                               ; preds = %34, %24
  %36 = call ptr @event_mm_calloc_(i64 noundef 1, i64 noundef 176)
  store ptr %36, ptr %14, align 8
  %37 = load ptr, ptr %14, align 8
  %38 = icmp ne ptr %37, null
  br i1 %38, label %40, label %39

39:                                               ; preds = %35
  store ptr null, ptr %7, align 8
  store i32 1, ptr %15, align 4
  br label %114

40:                                               ; preds = %35
  %41 = load ptr, ptr %14, align 8
  %42 = getelementptr inbounds nuw %struct.evconnlistener_event, ptr %41, i32 0, i32 0
  %43 = getelementptr inbounds nuw %struct.evconnlistener, ptr %42, i32 0, i32 0
  store ptr @evconnlistener_event_ops, ptr %43, align 8
  %44 = load ptr, ptr %9, align 8
  %45 = load ptr, ptr %14, align 8
  %46 = getelementptr inbounds nuw %struct.evconnlistener_event, ptr %45, i32 0, i32 0
  %47 = getelementptr inbounds nuw %struct.evconnlistener, ptr %46, i32 0, i32 2
  store ptr %44, ptr %47, align 8
  %48 = load ptr, ptr %10, align 8
  %49 = load ptr, ptr %14, align 8
  %50 = getelementptr inbounds nuw %struct.evconnlistener_event, ptr %49, i32 0, i32 0
  %51 = getelementptr inbounds nuw %struct.evconnlistener, ptr %50, i32 0, i32 4
  store ptr %48, ptr %51, align 8
  %52 = load i32, ptr %11, align 4
  %53 = load ptr, ptr %14, align 8
  %54 = getelementptr inbounds nuw %struct.evconnlistener_event, ptr %53, i32 0, i32 0
  %55 = getelementptr inbounds nuw %struct.evconnlistener, ptr %54, i32 0, i32 5
  store i32 %52, ptr %55, align 8
  %56 = load ptr, ptr %14, align 8
  %57 = getelementptr inbounds nuw %struct.evconnlistener_event, ptr %56, i32 0, i32 0
  %58 = getelementptr inbounds nuw %struct.evconnlistener, ptr %57, i32 0, i32 6
  store i16 1, ptr %58, align 4
  %59 = load ptr, ptr %14, align 8
  %60 = getelementptr inbounds nuw %struct.evconnlistener_event, ptr %59, i32 0, i32 0
  %61 = getelementptr inbounds nuw %struct.evconnlistener, ptr %60, i32 0, i32 7
  store i32 0, ptr %61, align 8
  %62 = load i32, ptr %11, align 4
  %63 = and i32 %62, 1
  %64 = icmp ne i32 %63, 0
  br i1 %64, label %71, label %65

65:                                               ; preds = %40
  %66 = load ptr, ptr %14, align 8
  %67 = getelementptr inbounds nuw %struct.evconnlistener_event, ptr %66, i32 0, i32 0
  %68 = getelementptr inbounds nuw %struct.evconnlistener, ptr %67, i32 0, i32 7
  %69 = load i32, ptr %68, align 8
  %70 = or i32 %69, 2048
  store i32 %70, ptr %68, align 8
  br label %71

71:                                               ; preds = %65, %40
  %72 = load i32, ptr %11, align 4
  %73 = and i32 %72, 4
  %74 = icmp ne i32 %73, 0
  br i1 %74, label %75, label %81

75:                                               ; preds = %71
  %76 = load ptr, ptr %14, align 8
  %77 = getelementptr inbounds nuw %struct.evconnlistener_event, ptr %76, i32 0, i32 0
  %78 = getelementptr inbounds nuw %struct.evconnlistener, ptr %77, i32 0, i32 7
  %79 = load i32, ptr %78, align 8
  %80 = or i32 %79, 524288
  store i32 %80, ptr %78, align 8
  br label %81

81:                                               ; preds = %75, %71
  %82 = load i32, ptr %11, align 4
  %83 = and i32 %82, 16
  %84 = icmp ne i32 %83, 0
  br i1 %84, label %85, label %97

85:                                               ; preds = %81
  %86 = load ptr, ptr getelementptr inbounds nuw (%struct.evthread_lock_callbacks, ptr @evthread_lock_fns_, i32 0, i32 2), align 8
  %87 = icmp ne ptr %86, null
  br i1 %87, label %88, label %91

88:                                               ; preds = %85
  %89 = load ptr, ptr getelementptr inbounds nuw (%struct.evthread_lock_callbacks, ptr @evthread_lock_fns_, i32 0, i32 2), align 8
  %90 = call ptr %89(i32 noundef 1)
  br label %92

91:                                               ; preds = %85
  br label %92

92:                                               ; preds = %91, %88
  %93 = phi ptr [ %90, %88 ], [ null, %91 ]
  %94 = load ptr, ptr %14, align 8
  %95 = getelementptr inbounds nuw %struct.evconnlistener_event, ptr %94, i32 0, i32 0
  %96 = getelementptr inbounds nuw %struct.evconnlistener, ptr %95, i32 0, i32 1
  store ptr %93, ptr %96, align 8
  br label %97

97:                                               ; preds = %92, %81
  %98 = load ptr, ptr %14, align 8
  %99 = getelementptr inbounds nuw %struct.evconnlistener_event, ptr %98, i32 0, i32 1
  %100 = load ptr, ptr %8, align 8
  %101 = load i32, ptr %13, align 4
  %102 = load ptr, ptr %14, align 8
  %103 = call i32 @event_assign(ptr noundef %99, ptr noundef %100, i32 noundef %101, i16 noundef signext 18, ptr noundef @listener_read_cb, ptr noundef %102)
  %104 = load i32, ptr %11, align 4
  %105 = and i32 %104, 32
  %106 = icmp ne i32 %105, 0
  br i1 %106, label %111, label %107

107:                                              ; preds = %97
  %108 = load ptr, ptr %14, align 8
  %109 = getelementptr inbounds nuw %struct.evconnlistener_event, ptr %108, i32 0, i32 0
  %110 = call i32 @evconnlistener_enable(ptr noundef %109)
  br label %111

111:                                              ; preds = %107, %97
  %112 = load ptr, ptr %14, align 8
  %113 = getelementptr inbounds nuw %struct.evconnlistener_event, ptr %112, i32 0, i32 0
  store ptr %113, ptr %7, align 8
  store i32 1, ptr %15, align 4
  br label %114

114:                                              ; preds = %111, %39, %32, %23
  call void @llvm.lifetime.end.p0(i64 8, ptr %14) #5
  %115 = load ptr, ptr %7, align 8
  ret ptr %115
}