; Function Attrs: nounwind uwtable
define ptr @evconnlistener_new(ptr noundef %0, ptr noundef %1, ptr noundef %2, i32 noundef %3, i32 noundef %4, i32 noundef %5) local_unnamed_addr #0 {
  %7 = icmp sgt i32 %4, 0
  br i1 %7, label %8, label %11

8:                                                ; preds = %6
  %9 = tail call i32 @listen(i32 noundef %5, i32 noundef %4) #6
  %10 = icmp slt i32 %9, 0
  br i1 %10, label %evconnlistener_enable.exit, label %16

11:                                               ; preds = %6
  %12 = icmp slt i32 %4, 0
  br i1 %12, label %13, label %16

13:                                               ; preds = %11
  %14 = tail call i32 @listen(i32 noundef %5, i32 noundef 128) #6
  %15 = icmp slt i32 %14, 0
  br i1 %15, label %evconnlistener_enable.exit, label %16

16:                                               ; preds = %11, %13, %8
  %17 = tail call ptr @event_mm_calloc_(i64 noundef 1, i64 noundef 176) #6
  %.not = icmp eq ptr %17, null
  br i1 %.not, label %evconnlistener_enable.exit, label %18

18:                                               ; preds = %16
  store ptr @evconnlistener_event_ops, ptr %17, align 8
  %19 = getelementptr inbounds nuw i8, ptr %17, i64 16
  store ptr %1, ptr %19, align 8
  %20 = getelementptr inbounds nuw i8, ptr %17, i64 32
  store ptr %2, ptr %20, align 8
  %21 = getelementptr inbounds nuw i8, ptr %17, i64 40
  store i32 %3, ptr %21, align 8
  %22 = getelementptr inbounds nuw i8, ptr %17, i64 44
  store i16 1, ptr %22, align 4
  %23 = getelementptr inbounds nuw i8, ptr %17, i64 48
  %24 = shl i32 %3, 11
  %25 = and i32 %24, 2048
  %26 = shl i32 %3, 17
  %27 = and i32 %26, 524288
  %28 = or disjoint i32 %25, %27
  %spec.select36 = xor i32 %28, 2048
  store i32 %spec.select36, ptr %23, align 8
  %29 = and i32 %3, 16
  %.not33 = icmp eq i32 %29, 0
  br i1 %.not33, label %37, label %30

30:                                               ; preds = %18
  %31 = load ptr, ptr getelementptr inbounds nuw (i8, ptr @evthread_lock_fns_, i64 8), align 8
  %.not34 = icmp eq ptr %31, null
  br i1 %.not34, label %34, label %32

32:                                               ; preds = %30
  %33 = tail call ptr %31(i32 noundef 1) #6
  br label %34

34:                                               ; preds = %30, %32
  %35 = phi ptr [ %33, %32 ], [ null, %30 ]
  %36 = getelementptr inbounds nuw i8, ptr %17, i64 8
  store ptr %35, ptr %36, align 8
  br label %37

37:                                               ; preds = %34, %18
  %38 = getelementptr inbounds nuw i8, ptr %17, i64 56
  %39 = tail call i32 @event_assign(ptr noundef nonnull %38, ptr noundef %0, i32 noundef %5, i16 noundef signext 18, ptr noundef nonnull @listener_read_cb, ptr noundef nonnull %17) #6
  %40 = and i32 %3, 32
  %.not35 = icmp eq i32 %40, 0
  br i1 %.not35, label %41, label %evconnlistener_enable.exit

41:                                               ; preds = %37
  %42 = getelementptr inbounds nuw i8, ptr %17, i64 8
  %43 = load ptr, ptr %42, align 8
  %.not.i = icmp eq ptr %43, null
  br i1 %.not.i, label %47, label %44

44:                                               ; preds = %41
  %45 = load ptr, ptr getelementptr inbounds nuw (i8, ptr @evthread_lock_fns_, i64 24), align 8
  %46 = tail call i32 %45(i32 noundef 0, ptr noundef nonnull %43) #6
  br label %47

47:                                               ; preds = %44, %41
  %48 = getelementptr inbounds nuw i8, ptr %17, i64 52
  %49 = load i8, ptr %48, align 4
  %50 = or i8 %49, 1
  store i8 %50, ptr %48, align 4
  %51 = load ptr, ptr %19, align 8
  %.not10.i = icmp eq ptr %51, null
  br i1 %.not10.i, label %56, label %52

52:                                               ; preds = %47
  %53 = load ptr, ptr %17, align 8
  %54 = load ptr, ptr %53, align 8
  %55 = tail call i32 %54(ptr noundef nonnull %17) #6
  br label %56

56:                                               ; preds = %52, %47
  %57 = load ptr, ptr %42, align 8
  %.not11.i = icmp eq ptr %57, null
  br i1 %.not11.i, label %evconnlistener_enable.exit, label %58

58:                                               ; preds = %56
  %59 = load ptr, ptr getelementptr inbounds nuw (i8, ptr @evthread_lock_fns_, i64 32), align 8
  %60 = tail call i32 %59(i32 noundef 0, ptr noundef nonnull %57) #6
  br label %evconnlistener_enable.exit

evconnlistener_enable.exit:                       ; preds = %58, %56, %37, %16, %13, %8
  %.0 = phi ptr [ null, %8 ], [ null, %13 ], [ null, %16 ], [ %17, %37 ], [ %17, %56 ], [ %17, %58 ]
  ret ptr %.0
}